Certificate:
    Data:
        Version: 3 (0x2)
        Serial Number: 1 (0x1)
        Signature Algorithm: sha1WithRSAEncryption
        Issuer: C=ES, ST=Some-State, O=UMU, OU=ST, CN=ca
        Validity
            Not Before: Jun 16 15:19:42 2012 GMT
            Not After : Jun 16 15:19:42 2013 GMT
        Subject: C=ES, ST=Some-State, O=UMU, OU=ST, CN=www.st.um
        Subject Public Key Info:
            Public Key Algorithm: rsaEncryption
            RSA Public Key: (1024 bit)
                Modulus (1024 bit):
                    00:ae:89:7d:9e:f6:b6:9f:38:58:78:52:5f:e0:53:
                    f2:27:6e:e7:2e:de:de:2f:f5:a1:f1:05:2a:2c:65:
                    c6:52:7f:df:75:70:2b:b2:06:93:d1:a4:5b:16:47:
                    f9:8e:45:47:5b:22:6d:9f:ff:19:6e:4f:22:f3:30:
                    47:d6:42:2d:2f:13:91:2d:0f:34:6e:88:a6:c1:22:
                    08:86:2b:d5:4b:e2:78:9b:1f:94:5e:d7:cd:73:ad:
                    3a:4b:a5:40:d1:c9:77:48:56:8b:e6:63:d6:8c:31:
                    eb:c3:96:c2:0f:72:20:ad:53:a4:0d:30:47:81:0a:
                    3b:57:84:ea:99:8c:e5:70:c5
                Exponent: 65537 (0x10001)
        X509v3 extensions:
            X509v3 Basic Constraints: 
                CA:FALSE
            Netscape Comment: 
                OpenSSL Generated Certificate
            X509v3 Subject Key Identifier: 
                43:C5:01:C6:89:A4:6B:86:60:FF:C5:46:EB:EA:B7:93:24:CF:5E:81
            X509v3 Authority Key Identifier: 
                keyid:7D:88:17:C9:A9:2E:14:34:2F:28:3A:FC:13:7F:E9:41:DD:F8:70:C5

    Signature Algorithm: sha1WithRSAEncryption
        68:fd:ef:de:2b:3e:84:38:47:14:ad:df:77:cc:74:b2:27:56:
        bb:a8:fb:fa:9f:d1:e1:15:80:b8:1c:4f:3e:84:45:e5:7c:d0:
        eb:d0:89:29:bf:73:07:ea:49:99:6b:5f:20:5b:65:4f:16:b2:
        9a:0e:2c:14:da:1c:b8:9b:8d:b9:9d:8f:28:7f:0c:af:67:8b:
        79:48:f0:b6:bf:ed:5f:bd:cb:ed:6b:f1:01:bc:2b:fb:0e:6f:
        9d:a6:50:a6:5a:40:a2:ad:b4:a8:61:db:ed:47:02:33:56:b7:
        89:3d:b9:d7:f9:b6:3b:93:5c:d2:ec:bc:7e:fe:0e:88:bf:e0:
        67:7e:5d:af:2e:b0:2b:bb:9a:d1:f8:4d:08:07:e6:62:f6:ae:
        4d:d5:e1:9c:03:4a:e9:41:fa:8a:82:3f:a7:05:cc:cd:9c:88:
        86:08:12:b0:e2:67:d3:b2:59:b2:fd:00:c6:96:49:be:0c:b5:
        42:ea:52:04:89:04:37:f2:85:43:c5:6c:ad:92:a0:4e:61:24:
        12:c9:e7:53:1f:2d:d4:87:7b:30:80:e7:20:66:c6:30:5d:9c:
        b0:e1:05:e9:bb:bd:a3:55:c4:c5:61:e5:47:6d:be:6f:4f:ff:
        2f:c1:7e:88:37:92:67:2c:2f:2e:75:67:55:cb:b9:8d:28:0c:
        4f:c8:1a:88
-----BEGIN CERTIFICATE-----
MIIDDTCCAfWgAwIBAgIBATANBgkqhkiG9w0BAQUFADBKMQswCQYDVQQGEwJFUzET
MBEGA1UECBMKU29tZS1TdGF0ZTEMMAoGA1UEChMDVU1VMQswCQYDVQQLEwJTVDEL
MAkGA1UEAxMCY2EwHhcNMTIwNjE2MTUxOTQyWhcNMTMwNjE2MTUxOTQyWjBRMQsw
CQYDVQQGEwJFUzETMBEGA1UECBMKU29tZS1TdGF0ZTEMMAoGA1UEChMDVU1VMQsw
CQYDVQQLEwJTVDESMBAGA1UEAxMJd3d3LnN0LnVtMIGfMA0GCSqGSIb3DQEBAQUA
A4GNADCBiQKBgQCuiX2e9rafOFh4Ul/gU/Inbucu3t4v9aHxBSosZcZSf991cCuy
BpPRpFsWR/mORUdbIm2f/xluTyLzMEfWQi0vE5EtDzRuiKbBIgiGK9VL4nibH5Re
181zrTpLpUDRyXdIVovmY9aMMevDlsIPciCtU6QNMEeBCjtXhOqZjOVwxQIDAQAB
o3sweTAJBgNVHRMEAjAAMCwGCWCGSAGG+EIBDQQfFh1PcGVuU1NMIEdlbmVyYXRl
ZCBDZXJ0aWZpY2F0ZTAdBgNVHQ4EFgQUQ8UBxomka4Zg/8VG6+q3kyTPXoEwHwYD
VR0jBBgwFoAUfYgXyakuFDQvKDr8E3/pQd34cMUwDQYJKoZIhvcNAQEFBQADggEB
AGj9794rPoQ4RxSt33fMdLInVruo+/qf0eEVgLgcTz6EReV80OvQiSm/cwfqSZlr
XyBbZU8WspoOLBTaHLibjbmdjyh/DK9ni3lI8La/7V+9y+1r8QG8K/sOb52mUKZa
QKKttKhh2+1HAjNWt4k9udf5tjuTXNLsvH7+Doi/4Gd+Xa8usCu7mtH4TQgH5mL2
rk3V4ZwDSulB+oqCP6cFzM2ciIYIErDiZ9OyWbL9AMaWSb4MtULqUgSJBDfyhUPF
bK2SoE5hJBLJ51MfLdSHezCA5yBmxjBdnLDhBem7vaNVxMVh5Udtvm9P/y/Bfog3
kmcsLy51Z1XLuY0oDE/IGog=
-----END CERTIFICATE-----
